target datalayout = "e-m:e-p270:32:32-p271:32:32-p272:64:64-i64:64-i128:128-f80:128-n8:16:32:64-S128"
target triple = "x86_64-pc-linux-gnu"

@.str.19 = private unnamed_addr constant [31 x i8] c"corrupt tzdb: expected a digit\00", align 1
@.str.20 = private unnamed_addr constant [40 x i8] c"corrupt tzdb: expected a non-zero digit\00", align 1
@.str.21 = private unnamed_addr constant [33 x i8] c"corrupt tzdb: integral too large\00", align 1

; Function Attrs: mustprogress nounwind uwtable
define linkonce_odr hidden noundef i64 @_ZNSt3__123__libcpp_numeric_limitsIlLb1EE3maxB8ne210000Ev() #1 comdat align 2 {
  ret i64 9223372036854775807
}

; Function Attrs: mustprogress nounwind uwtable
define linkonce_odr hidden noundef i64 @_ZNSt3__114numeric_limitsIlE3maxB8ne210000Ev() #1 comdat align 2 {
  %1 = call noundef i64 @_ZNSt3__123__libcpp_numeric_limitsIlLb1EE3maxB8ne210000Ev() #4
  ret i64 %1
}

; Function Attrs: mustprogress uwtable
define internal noundef i64 @_ZNSt3__16chronoL16__parse_integralB8ne210000ERNS_13basic_istreamIcNS_11char_traitsIcEEEEb(ptr noundef nonnull align 8 dereferenceable(16) %0, i1 noundef zeroext %1) #0 {
  %3 = alloca ptr, align 8
  %4 = alloca i8, align 1
  %5 = alloca i64, align 8
  store ptr %0, ptr %3, align 8, !tbaa !27
  %6 = zext i1 %1 to i8
  store i8 %6, ptr %4, align 1, !tbaa !63
  call void @llvm.lifetime.start.p0(i64 8, ptr %5) #4
  %7 = load ptr, ptr %3, align 8, !tbaa !27
  %8 = call noundef i32 @_ZNSt3__113basic_istreamIcNS_11char_traitsIcEEE3getEv(ptr noundef nonnull align 8 dereferenceable(16) %7)
  %9 = sext i32 %8 to i64
  store i64 %9, ptr %5, align 8, !tbaa !54
  %10 = load i8, ptr %4, align 1, !tbaa !63, !range !65, !noundef !66
  %11 = trunc i8 %10 to i1
  br i1 %11, label %12, label %20

12:                                               ; preds = %2
  %13 = load i64, ptr %5, align 8, !tbaa !54
  %14 = icmp slt i64 %13, 48
  br i1 %14, label %18, label %15

15:                                               ; preds = %12
  %16 = load i64, ptr %5, align 8, !tbaa !54
  %17 = icmp sgt i64 %16, 57
  br i1 %17, label %18, label %19

18:                                               ; preds = %15, %12
  call void @_ZNSt3__121__throw_runtime_errorEPKc(ptr noundef @.str.19) #24
  unreachable

19:                                               ; preds = %15
  br label %28

20:                                               ; preds = %2
  %21 = load i64, ptr %5, align 8, !tbaa !54
  %22 = icmp slt i64 %21, 49
  br i1 %22, label %26, label %23

23:                                               ; preds = %20
  %24 = load i64, ptr %5, align 8, !tbaa !54
  %25 = icmp sgt i64 %24, 57
  br i1 %25, label %26, label %27

26:                                               ; preds = %23, %20
  call void @_ZNSt3__121__throw_runtime_errorEPKc(ptr noundef @.str.20) #24
  unreachable

27:                                               ; preds = %23
  br label %28

28:                                               ; preds = %27, %19
  %29 = load i64, ptr %5, align 8, !tbaa !54
  %30 = sub nsw i64 %29, 48
  store i64 %30, ptr %5, align 8, !tbaa !54
  br label %31

31:                                               ; preds = %48, %28
  br label %32

32:                                               ; preds = %31
  %33 = load ptr, ptr %3, align 8, !tbaa !27
  %34 = call noundef i32 @_ZNSt3__113basic_istreamIcNS_11char_traitsIcEEE4peekEv(ptr noundef nonnull align 8 dereferenceable(16) %33)
  %35 = icmp slt i32 %34, 48
  br i1 %35, label %40, label %36

36:                                               ; preds = %32
  %37 = load ptr, ptr %3, align 8, !tbaa !27
  %38 = call noundef i32 @_ZNSt3__113basic_istreamIcNS_11char_traitsIcEEE4peekEv(ptr noundef nonnull align 8 dereferenceable(16) %37)
  %39 = icmp sgt i32 %38, 57
  br i1 %39, label %40, label %42

40:                                               ; preds = %36, %32
  %41 = load i64, ptr %5, align 8, !tbaa !54
  call void @llvm.lifetime.end.p0(i64 8, ptr %5) #4
  ret i64 %41

42:                                               ; preds = %36
  %43 = load i64, ptr %5, align 8, !tbaa !54
  %44 = call noundef i64 @_ZNSt3__114numeric_limitsIlE3maxB8ne210000Ev() #4
  %45 = sdiv i64 %44, 16
  %46 = icmp sgt i64 %43, %45
  br i1 %46, label %47, label %48

47:                                               ; preds = %42
  call void @_ZNSt3__121__throw_runtime_errorEPKc(ptr noundef @.str.21) #24
  unreachable

48:                                               ; preds = %42
  %49 = load i64, ptr %5, align 8, !tbaa !54
  %50 = mul nsw i64 %49, 10
  store i64 %50, ptr %5, align 8, !tbaa !54
  %51 = load ptr, ptr %3, align 8, !tbaa !27
  %52 = call noundef i32 @_ZNSt3__113basic_istreamIcNS_11char_traitsIcEEE3getEv(ptr noundef nonnull align 8 dereferenceable(16) %51)
  %53 = sub nsw i32 %52, 48
  %54 = sext i32 %53 to i64
  %55 = load i64, ptr %5, align 8, !tbaa !54
  %56 = add nsw i64 %55, %54
  store i64 %56, ptr %5, align 8, !tbaa !54
  br label %31, !llvm.loop !254
}