; Function Attrs: mustprogress uwtable
define internal fastcc noundef range(i64 -9223372036854775808, 5764607525181718470) i64 @_ZNSt3__16chronoL16__parse_integralB8ne210000ERNS_13basic_istreamIcNS_11char_traitsIcEEEEb(ptr noundef nonnull align 8 dereferenceable(16) %0, i1 noundef zeroext %1) unnamed_addr #0 {
  %3 = tail call noundef i32 @_ZNSt3__113basic_istreamIcNS_11char_traitsIcEEE3getEv(ptr noundef nonnull align 8 dereferenceable(16) %0)
  %4 = sext i32 %3 to i64
  %5 = add i32 %3, -58
  br i1 %1, label %6, label %8

6:                                                ; preds = %2
  %or.cond = icmp ult i32 %5, -10
  br i1 %or.cond, label %7, label %10

7:                                                ; preds = %6
  tail call void @_ZNSt3__121__throw_runtime_errorEPKc(ptr noundef nonnull @.str.19) #33
  unreachable

8:                                                ; preds = %2
  %or.cond3 = icmp ult i32 %5, -9
  br i1 %or.cond3, label %9, label %10

9:                                                ; preds = %8
  tail call void @_ZNSt3__121__throw_runtime_errorEPKc(ptr noundef nonnull @.str.20) #33
  unreachable

10:                                               ; preds = %8, %6
  %11 = add nsw i64 %4, -48
  %12 = tail call noundef i32 @_ZNSt3__113basic_istreamIcNS_11char_traitsIcEEE4peekEv(ptr noundef nonnull align 8 dereferenceable(16) %0)
  %13 = icmp slt i32 %12, 48
  br i1 %13, label %._crit_edge, label %.lr.ph

.lr.ph:                                           ; preds = %10, %19
  %.017 = phi i64 [ %24, %19 ], [ %11, %10 ]
  %14 = tail call noundef i32 @_ZNSt3__113basic_istreamIcNS_11char_traitsIcEEE4peekEv(ptr noundef nonnull align 8 dereferenceable(16) %0)
  %15 = icmp sgt i32 %14, 57
  br i1 %15, label %._crit_edge, label %16

._crit_edge:                                      ; preds = %19, %.lr.ph, %10
  %.0.lcssa = phi i64 [ %11, %10 ], [ %.017, %.lr.ph ], [ %24, %19 ]
  ret i64 %.0.lcssa

16:                                               ; preds = %.lr.ph
  %17 = icmp sgt i64 %.017, 576460752303423487
  br i1 %17, label %18, label %19

18:                                               ; preds = %16
  tail call void @_ZNSt3__121__throw_runtime_errorEPKc(ptr noundef nonnull @.str.21) #33
  unreachable

19:                                               ; preds = %16
  %20 = mul nsw i64 %.017, 10
  %21 = tail call noundef i32 @_ZNSt3__113basic_istreamIcNS_11char_traitsIcEEE3getEv(ptr noundef nonnull align 8 dereferenceable(16) %0)
  %22 = add nsw i32 %21, -48
  %23 = sext i32 %22 to i64
  %24 = add nsw i64 %20, %23
  %25 = tail call noundef i32 @_ZNSt3__113basic_istreamIcNS_11char_traitsIcEEE4peekEv(ptr noundef nonnull align 8 dereferenceable(16) %0)
  %26 = icmp slt i32 %25, 48
  br i1 %26, label %._crit_edge, label %.lr.ph, !llvm.loop !180
}